target datalayout = "e-m:e-p270:32:32-p271:32:32-p272:64:64-i64:64-i128:128-f80:128-n8:16:32:64-S128"
target triple = "x86_64-pc-linux-gnu"

%"struct.std::atomic" = type { %"struct.std::__atomic_base" }
%"struct.std::__atomic_base" = type { i32 }
%"class.pxrInternal_v0_24__pxrReserved__::UsdSchemaBase" = type { ptr, %"class.pxrInternal_v0_24__pxrReserved__::Usd_PrimDataHandle", %"class.pxrInternal_v0_24__pxrReserved__::SdfPath" }
%"class.pxrInternal_v0_24__pxrReserved__::Usd_PrimDataHandle" = type { %"class.pxrInternal_v0_24__pxrReserved__::TfDelegatedCountPtr" }
%"class.pxrInternal_v0_24__pxrReserved__::TfDelegatedCountPtr" = type { ptr }
%"class.pxrInternal_v0_24__pxrReserved__::SdfPath" = type { %"struct.pxrInternal_v0_24__pxrReserved__::Sdf_PathNodeHandleImpl", %"struct.pxrInternal_v0_24__pxrReserved__::Sdf_PathNodeHandleImpl.0" }
%"struct.pxrInternal_v0_24__pxrReserved__::Sdf_PathNodeHandleImpl" = type { %"struct.pxrInternal_v0_24__pxrReserved__::Sdf_Pool<pxrInternal_v0_24__pxrReserved__::Sdf_PathPrimTag, 24, 8>::Handle" }
%"struct.pxrInternal_v0_24__pxrReserved__::Sdf_Pool<pxrInternal_v0_24__pxrReserved__::Sdf_PathPrimTag, 24, 8>::Handle" = type { i32 }
%"struct.pxrInternal_v0_24__pxrReserved__::Sdf_PathNodeHandleImpl.0" = type { %"struct.pxrInternal_v0_24__pxrReserved__::Sdf_Pool<pxrInternal_v0_24__pxrReserved__::Sdf_PathPropTag, 24, 8>::Handle" }
%"struct.pxrInternal_v0_24__pxrReserved__::Sdf_Pool<pxrInternal_v0_24__pxrReserved__::Sdf_PathPropTag, 24, 8>::Handle" = type { i32 }
%"class.pxrInternal_v0_24__pxrReserved__::TfCallContext" = type <{ ptr, ptr, i64, ptr, i8, [7 x i8] }>
%"class.pxrInternal_v0_24__pxrReserved__::UsdSkelTopology" = type { %"class.pxrInternal_v0_24__pxrReserved__::VtArray.3" }
%"class.pxrInternal_v0_24__pxrReserved__::VtArray.3" = type { %"class.pxrInternal_v0_24__pxrReserved__::Vt_ArrayBase", ptr }
%"class.pxrInternal_v0_24__pxrReserved__::Vt_ArrayBase" = type { %"struct.pxrInternal_v0_24__pxrReserved__::Vt_ShapeData", ptr }
%"struct.pxrInternal_v0_24__pxrReserved__::Vt_ShapeData" = type { i64, [3 x i32] }
%"class.pxrInternal_v0_24__pxrReserved__::UsdSkel_SkelDefinition" = type { %"class.pxrInternal_v0_24__pxrReserved__::TfRefBase.base", %"class.pxrInternal_v0_24__pxrReserved__::TfWeakBase", %"class.pxrInternal_v0_24__pxrReserved__::UsdSkelSkeleton", %"class.pxrInternal_v0_24__pxrReserved__::VtArray", %"class.pxrInternal_v0_24__pxrReserved__::UsdSkelTopology", %"class.pxrInternal_v0_24__pxrReserved__::VtArray.4", %"class.pxrInternal_v0_24__pxrReserved__::VtArray.4", %"struct.pxrInternal_v0_24__pxrReserved__::UsdSkel_SkelDefinition::_XformHolder", %"struct.pxrInternal_v0_24__pxrReserved__::UsdSkel_SkelDefinition::_XformHolder", %"struct.pxrInternal_v0_24__pxrReserved__::UsdSkel_SkelDefinition::_XformHolder", %"struct.std::atomic", %"class.std::mutex" }
%"class.pxrInternal_v0_24__pxrReserved__::TfRefBase.base" = type <{ ptr, %"struct.std::atomic" }>
%"class.pxrInternal_v0_24__pxrReserved__::TfWeakBase" = type { %"struct.std::atomic.1" }
%"struct.std::atomic.1" = type { %"struct.std::__atomic_base.2" }
%"struct.std::__atomic_base.2" = type { ptr }
%"class.pxrInternal_v0_24__pxrReserved__::UsdSkelSkeleton" = type { %"class.pxrInternal_v0_24__pxrReserved__::UsdGeomBoundable" }
%"class.pxrInternal_v0_24__pxrReserved__::UsdGeomBoundable" = type { %"class.pxrInternal_v0_24__pxrReserved__::UsdGeomXformable" }
%"class.pxrInternal_v0_24__pxrReserved__::UsdGeomXformable" = type { %"class.pxrInternal_v0_24__pxrReserved__::UsdGeomImageable" }
%"class.pxrInternal_v0_24__pxrReserved__::UsdGeomImageable" = type { %"class.pxrInternal_v0_24__pxrReserved__::UsdTyped" }
%"class.pxrInternal_v0_24__pxrReserved__::UsdTyped" = type { %"class.pxrInternal_v0_24__pxrReserved__::UsdSchemaBase" }
%"class.pxrInternal_v0_24__pxrReserved__::VtArray" = type { %"class.pxrInternal_v0_24__pxrReserved__::Vt_ArrayBase", ptr }
%"class.pxrInternal_v0_24__pxrReserved__::VtArray.4" = type { %"class.pxrInternal_v0_24__pxrReserved__::Vt_ArrayBase", ptr }
%"struct.pxrInternal_v0_24__pxrReserved__::UsdSkel_SkelDefinition::_XformHolder" = type { %"class.pxrInternal_v0_24__pxrReserved__::VtArray.4", %"class.pxrInternal_v0_24__pxrReserved__::VtArray.5" }
%"class.pxrInternal_v0_24__pxrReserved__::VtArray.5" = type { %"class.pxrInternal_v0_24__pxrReserved__::Vt_ArrayBase", ptr }
%"class.std::mutex" = type { %"class.std::__mutex_base" }
%"class.std::__mutex_base" = type { %union.pthread_mutex_t }
%union.pthread_mutex_t = type { %struct.__pthread_mutex_s }
%struct.__pthread_mutex_s = type { i32, i32, i32, i32, i32, i16, i16, %struct.__pthread_internal_list }
%struct.__pthread_internal_list = type { ptr, ptr }

@.str.2 = private unnamed_addr constant [128 x i8] c"generated/home/dtcxzyw/WorkSpace/Projects/compilers/llvm-opt-benchmark/bench/openusd/OpenUSD/pxr/usd/usdSkel/skelDefinition.cpp\00", align 1
@.str.6 = private unnamed_addr constant [26 x i8] c"'xforms' pointer is null.\00", align 1
@__func__._ZN32pxrInternal_v0_24__pxrReserved__22UsdSkel_SkelDefinition27_GetJointSkelRestTransformsILi4ENS_10GfMatrix4dEEEbPNS_7VtArrayIT0_EE = private unnamed_addr constant [28 x i8] c"_GetJointSkelRestTransforms\00", align 1

; Function Attrs: mustprogress nounwind uwtable
define linkonce_odr noundef i32 @_ZStanSt12memory_orderSt23__memory_order_modifier(i32 noundef %0, i32 noundef %1) #3 comdat {
  %3 = alloca i32, align 4
  %4 = alloca i32, align 4
  store i32 %0, ptr %3, align 4
  store i32 %1, ptr %4, align 4
  %5 = load i32, ptr %3, align 4
  %6 = load i32, ptr %4, align 4
  %7 = and i32 %5, %6
  ret i32 %7
}

; Function Attrs: mustprogress nounwind uwtable
define noundef nonnull align 8 dereferenceable(40) ptr @_ZN32pxrInternal_v0_24__pxrReserved__22UsdSkel_SkelDefinition12_XformHolder3GetINS_10GfMatrix4dEEERNS_7VtArrayIT_EEv(ptr noundef nonnull align 8 dereferenceable(80) %0) #3 align 2 {
  %2 = alloca ptr, align 8
  store ptr %0, ptr %2, align 8
  %3 = load ptr, ptr %2, align 8
  %4 = getelementptr inbounds nuw %"struct.pxrInternal_v0_24__pxrReserved__::UsdSkel_SkelDefinition::_XformHolder", ptr %3, i32 0, i32 0
  ret ptr %4
}

; Function Attrs: mustprogress nounwind uwtable
define linkonce_odr void @_ZN32pxrInternal_v0_24__pxrReserved__13TfCallContextC2EPKcS2_mS2_(ptr noundef nonnull align 8 dereferenceable(33) %0, ptr noundef %1, ptr noundef %2, i64 noundef %3, ptr noundef %4) unnamed_addr #3 comdat align 2 {
  %6 = alloca ptr, align 8
  %7 = alloca ptr, align 8
  %8 = alloca ptr, align 8
  %9 = alloca i64, align 8
  %10 = alloca ptr, align 8
  store ptr %0, ptr %6, align 8
  store ptr %1, ptr %7, align 8
  store ptr %2, ptr %8, align 8
  store i64 %3, ptr %9, align 8
  store ptr %4, ptr %10, align 8
  %11 = load ptr, ptr %6, align 8
  %12 = getelementptr inbounds nuw %"class.pxrInternal_v0_24__pxrReserved__::TfCallContext", ptr %11, i32 0, i32 0
  %13 = load ptr, ptr %7, align 8
  store ptr %13, ptr %12, align 8
  %14 = getelementptr inbounds nuw %"class.pxrInternal_v0_24__pxrReserved__::TfCallContext", ptr %11, i32 0, i32 1
  %15 = load ptr, ptr %8, align 8
  store ptr %15, ptr %14, align 8
  %16 = getelementptr inbounds nuw %"class.pxrInternal_v0_24__pxrReserved__::TfCallContext", ptr %11, i32 0, i32 2
  %17 = load i64, ptr %9, align 8
  store i64 %17, ptr %16, align 8
  %18 = getelementptr inbounds nuw %"class.pxrInternal_v0_24__pxrReserved__::TfCallContext", ptr %11, i32 0, i32 3
  %19 = load ptr, ptr %10, align 8
  store ptr %19, ptr %18, align 8
  %20 = getelementptr inbounds nuw %"class.pxrInternal_v0_24__pxrReserved__::TfCallContext", ptr %11, i32 0, i32 4
  store i8 0, ptr %20, align 8
  ret void
}

; Function Attrs: mustprogress nounwind uwtable
define linkonce_odr noundef i32 @_ZNKSt13__atomic_baseIiEcviEv(ptr noundef nonnull align 4 dereferenceable(4) %0) #3 comdat align 2 {
  %2 = alloca ptr, align 8
  %3 = alloca i32, align 4
  %4 = alloca i32, align 4
  %5 = alloca i32, align 4
  %6 = alloca ptr, align 8
  store ptr %0, ptr %6, align 8
  %7 = load ptr, ptr %6, align 8
  store ptr %7, ptr %2, align 8
  store i32 5, ptr %3, align 4
  %8 = load ptr, ptr %2, align 8
  %9 = load i32, ptr %3, align 4
  %10 = call noundef i32 @_ZStanSt12memory_orderSt23__memory_order_modifier(i32 noundef %9, i32 noundef 65535)
  store i32 %10, ptr %4, align 4
  %11 = load i32, ptr %3, align 4
  switch i32 %11, label %12 [
    i32 1, label %14
    i32 2, label %14
    i32 5, label %16
  ]

12:                                               ; preds = %1
  %13 = load atomic i32, ptr %8 monotonic, align 4
  store i32 %13, ptr %5, align 4
  br label %18

14:                                               ; preds = %1, %1
  %15 = load atomic i32, ptr %8 acquire, align 4
  store i32 %15, ptr %5, align 4
  br label %18

16:                                               ; preds = %1
  %17 = load atomic i32, ptr %8 seq_cst, align 4
  store i32 %17, ptr %5, align 4
  br label %18

18:                                               ; preds = %16, %14, %12
  %19 = load i32, ptr %5, align 4
  ret i32 %19
}

; Function Attrs: mustprogress uwtable
define linkonce_odr noundef zeroext i1 @_ZN32pxrInternal_v0_24__pxrReserved__22UsdSkel_SkelDefinition27_GetJointSkelRestTransformsILi4ENS_10GfMatrix4dEEEbPNS_7VtArrayIT0_EE(ptr noundef nonnull align 8 dereferenceable(496) %0, ptr noundef %1) #0 comdat align 2 {
  %3 = alloca i1, align 1
  %4 = alloca ptr, align 8
  %5 = alloca ptr, align 8
  %6 = alloca i32, align 4
  %7 = alloca %"class.pxrInternal_v0_24__pxrReserved__::TfCallContext", align 8
  store ptr %0, ptr %4, align 8
  store ptr %1, ptr %5, align 8
  %8 = load ptr, ptr %4, align 8
  %9 = getelementptr inbounds nuw %"class.pxrInternal_v0_24__pxrReserved__::UsdSkel_SkelDefinition", ptr %8, i32 0, i32 10
  %10 = call noundef i32 @_ZNKSt13__atomic_baseIiEcviEv(ptr noundef nonnull align 4 dereferenceable(4) %9) #12
  store i32 %10, ptr %6, align 4
  %11 = load i32, ptr %6, align 4
  %12 = and i32 %11, 2
  %13 = icmp ne i32 %12, 0
  br i1 %13, label %14, label %32

14:                                               ; preds = %2
  %15 = load ptr, ptr %5, align 8
  %16 = icmp ne ptr %15, null
  br i1 %16, label %18, label %17

17:                                               ; preds = %14
  call void @_ZN32pxrInternal_v0_24__pxrReserved__13TfCallContextC2EPKcS2_mS2_(ptr noundef nonnull align 8 dereferenceable(33) %7, ptr noundef @.str.2, ptr noundef @__func__._ZN32pxrInternal_v0_24__pxrReserved__22UsdSkel_SkelDefinition27_GetJointSkelRestTransformsILi4ENS_10GfMatrix4dEEEbPNS_7VtArrayIT0_EE, i64 noundef 188, ptr noundef @__PRETTY_FUNCTION__._ZN32pxrInternal_v0_24__pxrReserved__22UsdSkel_SkelDefinition27_GetJointSkelRestTransformsILi4ENS_10GfMatrix4dEEEbPNS_7VtArrayIT0_EE)
  call void (ptr, i32, ptr, ...) @_ZN32pxrInternal_v0_24__pxrReserved__18Tf_PostErrorHelperERKNS_13TfCallContextENS_16TfDiagnosticTypeEPKcz(ptr noundef nonnull align 8 dereferenceable(33) %7, i32 noundef 1, ptr noundef @.str.6)
  store i1 false, ptr %3, align 1
  br label %33

18:                                               ; preds = %14
  %19 = load i32, ptr %6, align 4
  %20 = and i32 %19, 4
  %21 = icmp ne i32 %20, 0
  %22 = xor i1 %21, true
  br i1 %22, label %23, label %27

23:                                               ; preds = %18
  %24 = call noundef zeroext i1 @_ZN32pxrInternal_v0_24__pxrReserved__22UsdSkel_SkelDefinition31_ComputeJointSkelRestTransformsILi4ENS_10GfMatrix4dEEEbv(ptr noundef nonnull align 8 dereferenceable(496) %8)
  br i1 %24, label %26, label %25

25:                                               ; preds = %23
  store i1 false, ptr %3, align 1
  br label %33

26:                                               ; preds = %23
  br label %27

27:                                               ; preds = %26, %18
  %28 = getelementptr inbounds nuw %"class.pxrInternal_v0_24__pxrReserved__::UsdSkel_SkelDefinition", ptr %8, i32 0, i32 7
  %29 = call noundef nonnull align 8 dereferenceable(40) ptr @_ZN32pxrInternal_v0_24__pxrReserved__22UsdSkel_SkelDefinition12_XformHolder3GetINS_10GfMatrix4dEEERNS_7VtArrayIT_EEv(ptr noundef nonnull align 8 dereferenceable(80) %28)
  %30 = load ptr, ptr %5, align 8
  %31 = call noundef nonnull align 8 dereferenceable(40) ptr @_ZN32pxrInternal_v0_24__pxrReserved__7VtArrayINS_10GfMatrix4dEEaSERKS2_(ptr noundef nonnull align 8 dereferenceable(40) %30, ptr noundef nonnull align 8 dereferenceable(40) %29)
  store i1 true, ptr %3, align 1
  br label %33

32:                                               ; preds = %2
  store i1 false, ptr %3, align 1
  br label %33

33:                                               ; preds = %32, %27, %25, %17
  %34 = load i1, ptr %3, align 1
  ret i1 %34
}

; Function Attrs: mustprogress uwtable
define noundef zeroext i1 @_ZN32pxrInternal_v0_24__pxrReserved__22UsdSkel_SkelDefinition26GetJointSkelRestTransformsINS_10GfMatrix4dEEEbPNS_7VtArrayIT_EE(ptr noundef nonnull align 8 dereferenceable(496) %0, ptr noundef %1) #0 align 2 {
  %3 = alloca ptr, align 8
  %4 = alloca ptr, align 8
  store ptr %0, ptr %3, align 8
  store ptr %1, ptr %4, align 8
  %5 = load ptr, ptr %3, align 8
  %6 = load ptr, ptr %4, align 8
  %7 = call noundef zeroext i1 @_ZN32pxrInternal_v0_24__pxrReserved__22UsdSkel_SkelDefinition27_GetJointSkelRestTransformsILi4ENS_10GfMatrix4dEEEbPNS_7VtArrayIT0_EE(ptr noundef nonnull align 8 dereferenceable(496) %5, ptr noundef %6)
  ret i1 %7
}